; ModuleID = '24/2551.c'
source_filename = "24/2551.c"
target datalayout = "e-m:e-p270:32:32-p271:32:32-p272:64:64-i64:64-f80:128-n8:16:32:64-S128"
target triple = "x86_64-pc-linux-gnu"

@.str = private unnamed_addr constant [3 x i8] c"%d\00", align 1
@.str.1 = private unnamed_addr constant [3 x i8] c"%s\00", align 1
@.str.2 = private unnamed_addr constant [3 x i8] c"%c\00", align 1
@.str.3 = private unnamed_addr constant [2 x i8] c"\0A\00", align 1

; Function Attrs: noinline nounwind uwtable
define dso_local i32 @main() #0 {
  %1 = alloca i32, align 4
  %2 = alloca i32, align 4
  %3 = alloca i32, align 4
  %4 = alloca i32, align 4
  %5 = alloca [100 x i8], align 16
  %6 = alloca [100 x i8], align 16
  %7 = alloca i32, align 4
  %8 = alloca i32, align 4
  %9 = alloca [100 x i8], align 16
  %10 = alloca i32, align 4
  store i32 0, i32* %1, align 4
  %11 = call i32 (i8*, ...) @__isoc99_scanf(i8* getelementptr inbounds ([3 x i8], [3 x i8]* @.str, i64 0, i64 0), i32* %2)
  store i32 0, i32* %7, align 4
  store i32 100, i32* %8, align 4
  store i32 0, i32* %3, align 4
  br label %12

12:                                               ; preds = %66, %0
  %13 = load i32, i32* %3, align 4
  %14 = load i32, i32* %2, align 4
  %15 = icmp slt i32 %13, %14
  br i1 %15, label %16, label %69

16:                                               ; preds = %12
  %17 = getelementptr inbounds [100 x i8], [100 x i8]* %9, i64 0, i64 0
  %18 = call i32 (i8*, ...) @__isoc99_scanf(i8* getelementptr inbounds ([3 x i8], [3 x i8]* @.str.1, i64 0, i64 0), i8* %17)
  %19 = getelementptr inbounds [100 x i8], [100 x i8]* %9, i64 0, i64 0
  %20 = call i64 @strlen(i8* %19) #3
  %21 = trunc i64 %20 to i32
  store i32 %21, i32* %10, align 4
  %22 = load i32, i32* %10, align 4
  %23 = load i32, i32* %7, align 4
  %24 = icmp sgt i32 %22, %23
  br i1 %24, label %25, label %43

25:                                               ; preds = %16
  store i32 0, i32* %4, align 4
  br label %26

26:                                               ; preds = %38, %25
  %27 = load i32, i32* %4, align 4
  %28 = load i32, i32* %10, align 4
  %29 = icmp slt i32 %27, %28
  br i1 %29, label %30, label %41

30:                                               ; preds = %26
  %31 = load i32, i32* %4, align 4
  %32 = sext i32 %31 to i64
  %33 = getelementptr inbounds [100 x i8], [100 x i8]* %9, i64 0, i64 %32
  %34 = load i8, i8* %33, align 1
  %35 = load i32, i32* %4, align 4
  %36 = sext i32 %35 to i64
  %37 = getelementptr inbounds [100 x i8], [100 x i8]* %5, i64 0, i64 %36
  store i8 %34, i8* %37, align 1
  br label %38

38:                                               ; preds = %30
  %39 = load i32, i32* %4, align 4
  %40 = add nsw i32 %39, 1
  store i32 %40, i32* %4, align 4
  br label %26

41:                                               ; preds = %26
  %42 = load i32, i32* %10, align 4
  store i32 %42, i32* %7, align 4
  br label %43

43:                                               ; preds = %41, %16
  %44 = load i32, i32* %10, align 4
  %45 = load i32, i32* %8, align 4
  %46 = icmp slt i32 %44, %45
  br i1 %46, label %47, label %65

47:                                               ; preds = %43
  store i32 0, i32* %4, align 4
  br label %48

48:                                               ; preds = %60, %47
  %49 = load i32, i32* %4, align 4
  %50 = load i32, i32* %10, align 4
  %51 = icmp slt i32 %49, %50
  br i1 %51, label %52, label %63

52:                                               ; preds = %48
  %53 = load i32, i32* %4, align 4
  %54 = sext i32 %53 to i64
  %55 = getelementptr inbounds [100 x i8], [100 x i8]* %9, i64 0, i64 %54
  %56 = load i8, i8* %55, align 1
  %57 = load i32, i32* %4, align 4
  %58 = sext i32 %57 to i64
  %59 = getelementptr inbounds [100 x i8], [100 x i8]* %6, i64 0, i64 %58
  store i8 %56, i8* %59, align 1
  br label %60

60:                                               ; preds = %52
  %61 = load i32, i32* %4, align 4
  %62 = add nsw i32 %61, 1
  store i32 %62, i32* %4, align 4
  br label %48

63:                                               ; preds = %48
  %64 = load i32, i32* %10, align 4
  store i32 %64, i32* %8, align 4
  br label %65

65:                                               ; preds = %63, %43
  br label %66

66:                                               ; preds = %65
  %67 = load i32, i32* %3, align 4
  %68 = add nsw i32 %67, 1
  store i32 %68, i32* %3, align 4
  br label %12

69:                                               ; preds = %12
  store i32 0, i32* %3, align 4
  br label %70

70:                                               ; preds = %81, %69
  %71 = load i32, i32* %3, align 4
  %72 = load i32, i32* %7, align 4
  %73 = icmp slt i32 %71, %72
  br i1 %73, label %74, label %84

74:                                               ; preds = %70
  %75 = load i32, i32* %3, align 4
  %76 = sext i32 %75 to i64
  %77 = getelementptr inbounds [100 x i8], [100 x i8]* %5, i64 0, i64 %76
  %78 = load i8, i8* %77, align 1
  %79 = sext i8 %78 to i32
  %80 = call i32 (i8*, ...) @printf(i8* getelementptr inbounds ([3 x i8], [3 x i8]* @.str.2, i64 0, i64 0), i32 %79)
  br label %81

81:                                               ; preds = %74
  %82 = load i32, i32* %3, align 4
  %83 = add nsw i32 %82, 1
  store i32 %83, i32* %3, align 4
  br label %70

84:                                               ; preds = %70
  %85 = call i32 (i8*, ...) @printf(i8* getelementptr inbounds ([2 x i8], [2 x i8]* @.str.3, i64 0, i64 0))
  store i32 0, i32* %3, align 4
  br label %86

86:                                               ; preds = %97, %84
  %87 = load i32, i32* %3, align 4
  %88 = load i32, i32* %8, align 4
  %89 = icmp slt i32 %87, %88
  br i1 %89, label %90, label %100

90:                                               ; preds = %86
  %91 = load i32, i32* %3, align 4
  %92 = sext i32 %91 to i64
  %93 = getelementptr inbounds [100 x i8], [100 x i8]* %6, i64 0, i64 %92
  %94 = load i8, i8* %93, align 1
  %95 = sext i8 %94 to i32
  %96 = call i32 (i8*, ...) @printf(i8* getelementptr inbounds ([3 x i8], [3 x i8]* @.str.2, i64 0, i64 0), i32 %95)
  br label %97

97:                                               ; preds = %90
  %98 = load i32, i32* %3, align 4
  %99 = add nsw i32 %98, 1
  store i32 %99, i32* %3, align 4
  br label %86

100:                                              ; preds = %86
  ret i32 0
}

declare dso_local i32 @__isoc99_scanf(i8*, ...) #1

; Function Attrs: nounwind readonly
declare dso_local i64 @strlen(i8*) #2

declare dso_local i32 @printf(i8*, ...) #1


!llvm.module.flags = !{!0}
!llvm.ident = !{!1}

!0 = !{i32 1, !"wchar_size", i32 4}
!1 = !{!"clang version 10.0.0-4ubuntu1 "}
