; ModuleID = 'source-C-CXX/23/2551.c'
source_filename = "source-C-CXX/23/2551.c"
target datalayout = "e-m:e-p270:32:32-p271:32:32-p272:64:64-i64:64-f80:128-n8:16:32:64-S128"
target triple = "x86_64-pc-linux-gnu"

@.str = private unnamed_addr constant [3 x i8] c"%d\00", align 1
@.str.1 = private unnamed_addr constant [3 x i8] c"%s\00", align 1

; Function Attrs: nofree nounwind sspstrong uwtable
define dso_local i32 @main() local_unnamed_addr #0 {
  %1 = alloca i32, align 4
  %2 = alloca [100 x i8], align 16
  %3 = getelementptr inbounds [100 x i8], [100 x i8]* %2, i64 0, i64 0
  %4 = alloca [100 x i8], align 16
  %5 = getelementptr inbounds [100 x i8], [100 x i8]* %4, i64 0, i64 0
  %6 = alloca [100 x i8], align 16
  %7 = getelementptr inbounds [100 x i8], [100 x i8]* %6, i64 0, i64 0
  %8 = bitcast i32* %1 to i8*
  call void @llvm.lifetime.start.p0i8(i64 4, i8* nonnull %8) #6
  %9 = getelementptr inbounds [100 x i8], [100 x i8]* %2, i64 0, i64 0
  call void @llvm.lifetime.start.p0i8(i64 100, i8* nonnull %9) #6
  %10 = getelementptr inbounds [100 x i8], [100 x i8]* %4, i64 0, i64 0
  call void @llvm.lifetime.start.p0i8(i64 100, i8* nonnull %10) #6
  %11 = call i32 (i8*, ...) @__isoc99_scanf(i8* getelementptr inbounds ([3 x i8], [3 x i8]* @.str, i64 0, i64 0), i32* nonnull %1)
  %12 = getelementptr inbounds [100 x i8], [100 x i8]* %6, i64 0, i64 0
  %13 = load i32, i32* %1, align 4, !tbaa !5
  %14 = icmp sgt i32 %13, 0
  br i1 %14, label %21, label %15

15:                                               ; preds = %0
  %16 = call i32 @putchar(i32 10)
  br label %56

17:                                               ; preds = %40
  %18 = icmp sgt i32 %34, 0
  br i1 %18, label %19, label %53

19:                                               ; preds = %17
  %20 = zext i32 %34 to i64
  br label %45

21:                                               ; preds = %0, %40
  %22 = phi i32 [ %42, %40 ], [ 0, %0 ]
  %23 = phi i32 [ %41, %40 ], [ 100, %0 ]
  %24 = phi i32 [ %34, %40 ], [ 0, %0 ]
  call void @llvm.lifetime.start.p0i8(i64 100, i8* nonnull %12) #6
  %25 = call i32 (i8*, ...) @__isoc99_scanf(i8* getelementptr inbounds ([3 x i8], [3 x i8]* @.str.1, i64 0, i64 0), i8* nonnull %12)
  %26 = call i64 @strlen(i8* noundef nonnull %12) #7
  %27 = trunc i64 %26 to i32
  %28 = icmp slt i32 %24, %27
  br i1 %28, label %29, label %33

29:                                               ; preds = %21
  %30 = icmp sgt i32 %27, 0
  br i1 %30, label %31, label %33

31:                                               ; preds = %29
  %32 = and i64 %26, 4294967295
  call void @llvm.memcpy.p0i8.p0i8.i64(i8* nonnull align 16 %3, i8* nonnull align 16 %7, i64 %32, i1 false)
  br label %33

33:                                               ; preds = %31, %29, %21
  %34 = phi i32 [ %24, %21 ], [ %27, %29 ], [ %27, %31 ]
  %35 = icmp sgt i32 %23, %27
  br i1 %35, label %36, label %40

36:                                               ; preds = %33
  %37 = icmp sgt i32 %27, 0
  br i1 %37, label %38, label %40

38:                                               ; preds = %36
  %39 = and i64 %26, 4294967295
  call void @llvm.memcpy.p0i8.p0i8.i64(i8* nonnull align 16 %5, i8* nonnull align 16 %7, i64 %39, i1 false)
  br label %40

40:                                               ; preds = %38, %36, %33
  %41 = phi i32 [ %23, %33 ], [ %27, %36 ], [ %27, %38 ]
  call void @llvm.lifetime.end.p0i8(i64 100, i8* nonnull %12) #6
  %42 = add nuw nsw i32 %22, 1
  %43 = load i32, i32* %1, align 4, !tbaa !5
  %44 = icmp slt i32 %42, %43
  br i1 %44, label %21, label %17, !llvm.loop !9

45:                                               ; preds = %19, %45
  %46 = phi i64 [ 0, %19 ], [ %51, %45 ]
  %47 = getelementptr inbounds [100 x i8], [100 x i8]* %2, i64 0, i64 %46
  %48 = load i8, i8* %47, align 1, !tbaa !11
  %49 = sext i8 %48 to i32
  %50 = call i32 @putchar(i32 %49)
  %51 = add nuw nsw i64 %46, 1
  %52 = icmp eq i64 %51, %20
  br i1 %52, label %53, label %45, !llvm.loop !12

53:                                               ; preds = %45, %17
  %54 = call i32 @putchar(i32 10)
  %55 = icmp sgt i32 %41, 0
  br i1 %55, label %56, label %67

56:                                               ; preds = %15, %53
  %57 = phi i32 [ 100, %15 ], [ %41, %53 ]
  %58 = zext i32 %57 to i64
  br label %59

59:                                               ; preds = %56, %59
  %60 = phi i64 [ 0, %56 ], [ %65, %59 ]
  %61 = getelementptr inbounds [100 x i8], [100 x i8]* %4, i64 0, i64 %60
  %62 = load i8, i8* %61, align 1, !tbaa !11
  %63 = sext i8 %62 to i32
  %64 = call i32 @putchar(i32 %63)
  %65 = add nuw nsw i64 %60, 1
  %66 = icmp eq i64 %65, %58
  br i1 %66, label %67, label %59, !llvm.loop !13

67:                                               ; preds = %59, %53
  call void @llvm.lifetime.end.p0i8(i64 100, i8* nonnull %10) #6
  call void @llvm.lifetime.end.p0i8(i64 100, i8* nonnull %9) #6
  call void @llvm.lifetime.end.p0i8(i64 4, i8* nonnull %8) #6
  ret i32 0
}

; Function Attrs: argmemonly mustprogress nofree nosync nounwind willreturn
declare void @llvm.lifetime.start.p0i8(i64 immarg, i8* nocapture) #1

; Function Attrs: nofree nounwind
declare noundef i32 @__isoc99_scanf(i8* nocapture noundef readonly, ...) local_unnamed_addr #2

; Function Attrs: argmemonly mustprogress nofree nounwind readonly willreturn
declare i64 @strlen(i8* nocapture) local_unnamed_addr #3

; Function Attrs: argmemonly mustprogress nofree nosync nounwind willreturn
declare void @llvm.lifetime.end.p0i8(i64 immarg, i8* nocapture) #1

; Function Attrs: nofree nounwind
declare noundef i32 @putchar(i32 noundef) local_unnamed_addr #4

; Function Attrs: argmemonly nofree nounwind willreturn
declare void @llvm.memcpy.p0i8.p0i8.i64(i8* noalias nocapture writeonly, i8* noalias nocapture readonly, i64, i1 immarg) #5


!llvm.module.flags = !{!0, !1, !2, !3}
!llvm.ident = !{!4}

!0 = !{i32 1, !"wchar_size", i32 4}
!1 = !{i32 7, !"PIC Level", i32 2}
!2 = !{i32 7, !"PIE Level", i32 2}
!3 = !{i32 7, !"uwtable", i32 1}
!4 = !{!"clang version 13.0.0"}
!5 = !{!6, !6, i64 0}
!6 = !{!"int", !7, i64 0}
!7 = !{!"omnipotent char", !8, i64 0}
!8 = !{!"Simple C/C++ TBAA"}
!9 = distinct !{!9, !10}
!10 = !{!"llvm.loop.mustprogress"}
!11 = !{!7, !7, i64 0}
!12 = distinct !{!12, !10}
!13 = distinct !{!13, !10}
